; Function Attrs: mustprogress uwtable
define hidden void @_ZN17eigen_tensor_test11test_moduleERN8pybind117module_E(ptr noundef nonnull align 8 dereferenceable(8) %0) local_unnamed_addr #1 personality ptr @__gxx_personality_v0 {
  %2 = alloca %"class.pybind11::module_", align 8
  %3 = alloca %"class.pybind11::module_", align 8
  call void @_ZN8pybind117module_13def_submoduleEPKcS2_(ptr dead_on_unwind nonnull writable sret(%"class.pybind11::module_") align 8 %2, ptr noundef nonnull align 8 dereferenceable(8) %0, ptr noundef nonnull @.str, ptr noundef null)
  invoke void @_ZN8pybind117module_13def_submoduleEPKcS2_(ptr dead_on_unwind nonnull writable sret(%"class.pybind11::module_") align 8 %3, ptr noundef nonnull align 8 dereferenceable(8) %0, ptr noundef nonnull @.str.3, ptr noundef null)
          to label %4 unwind label %23

4:                                                ; preds = %1
  invoke void @_ZN17eigen_tensor_test18init_tensor_moduleILi0EEEvRN8pybind117module_E(ptr noundef nonnull align 8 dereferenceable(8) %2)
          to label %5 unwind label %25

5:                                                ; preds = %4
  invoke void @_ZN17eigen_tensor_test18init_tensor_moduleILi1EEEvRN8pybind117module_E(ptr noundef nonnull align 8 dereferenceable(8) %3)
          to label %6 unwind label %25

6:                                                ; preds = %5
  %7 = load ptr, ptr %3, align 8
  %.not.i.i.i.i = icmp eq ptr %7, null
  br i1 %.not.i.i.i.i, label %_ZN8pybind117module_D2Ev.exit, label %8

8:                                                ; preds = %6
  %9 = load i64, ptr %7, align 8
  %10 = add nsw i64 %9, -1
  store i64 %10, ptr %7, align 8
  %.not.i.i.i.i.i = icmp eq i64 %10, 0
  br i1 %.not.i.i.i.i.i, label %11, label %_ZN8pybind117module_D2Ev.exit

11:                                               ; preds = %8
  invoke void @_Py_Dealloc(ptr noundef nonnull %7)
          to label %_ZN8pybind117module_D2Ev.exit unwind label %12

12:                                               ; preds = %11
  %13 = landingpad { ptr, i32 }
          catch ptr null
  %14 = extractvalue { ptr, i32 } %13, 0
  call void @__clang_call_terminate(ptr %14) #26
  unreachable

_ZN8pybind117module_D2Ev.exit:                    ; preds = %6, %8, %11
  %15 = load ptr, ptr %2, align 8
  %.not.i.i.i.i5 = icmp eq ptr %15, null
  br i1 %.not.i.i.i.i5, label %_ZN8pybind117module_D2Ev.exit7, label %16

16:                                               ; preds = %_ZN8pybind117module_D2Ev.exit
  %17 = load i64, ptr %15, align 8
  %18 = add nsw i64 %17, -1
  store i64 %18, ptr %15, align 8
  %.not.i.i.i.i.i6 = icmp eq i64 %18, 0
  br i1 %.not.i.i.i.i.i6, label %19, label %_ZN8pybind117module_D2Ev.exit7

19:                                               ; preds = %16
  invoke void @_Py_Dealloc(ptr noundef nonnull %15)
          to label %_ZN8pybind117module_D2Ev.exit7 unwind label %20

20:                                               ; preds = %19
  %21 = landingpad { ptr, i32 }
          catch ptr null
  %22 = extractvalue { ptr, i32 } %21, 0
  call void @__clang_call_terminate(ptr %22) #26
  unreachable

_ZN8pybind117module_D2Ev.exit7:                   ; preds = %_ZN8pybind117module_D2Ev.exit, %16, %19
  ret void

23:                                               ; preds = %1
  %24 = landingpad { ptr, i32 }
          cleanup
  br label %27

25:                                               ; preds = %5, %4
  %26 = landingpad { ptr, i32 }
          cleanup
  call void @_ZN8pybind117module_D2Ev(ptr noundef nonnull align 8 dereferenceable(8) %3) #25
  br label %27

27:                                               ; preds = %25, %23
  %.pn = phi { ptr, i32 } [ %26, %25 ], [ %24, %23 ]
  call void @_ZN8pybind117module_D2Ev(ptr noundef nonnull align 8 dereferenceable(8) %2) #25
  resume { ptr, i32 } %.pn
}